target datalayout = "e-m:e-p270:32:32-p271:32:32-p272:64:64-i64:64-i128:128-f80:128-n8:16:32:64-S128"
target triple = "x86_64-pc-linux-gnu"

@H5_libinit_g = external global i8, align 1
@H5_libterm_g = external global i8, align 1
@.str = private unnamed_addr constant [97 x i8] c"generated/home/dtcxzyw/WorkSpace/Projects/compilers/llvm-opt-benchmark/bench/hdf5/hdf5/src/H5O.c\00", align 1
@H5E_FUNC_g = external global i64, align 8
@H5E_CANTINIT_g = external global i64, align 8
@.str.1 = private unnamed_addr constant [30 x i8] c"library initialization failed\00", align 1
@H5E_CANTSET_g = external global i64, align 8
@.str.2 = private unnamed_addr constant [22 x i8] c"can't set API context\00", align 1
@H5E_OHDR_g = external global i64, align 8
@H5E_ARGS_g = external global i64, align 8
@H5E_BADVALUE_g = external global i64, align 8
@__func__.H5Oclose = private unnamed_addr constant [9 x i8] c"H5Oclose\00", align 1
@H5E_CANTRELEASE_g = external global i64, align 8
@.str.75 = private unnamed_addr constant [19 x i8] c"not a valid object\00", align 1
@.str.76 = private unnamed_addr constant [23 x i8] c"unable to close object\00", align 1
@__func__.H5O__close_check_type = private unnamed_addr constant [22 x i8] c"H5O__close_check_type\00", align 1

; Function Attrs: nounwind uwtable
define internal i32 @H5O__close_check_type(i64 noundef %0) #0 {
  %2 = alloca i64, align 8
  %3 = alloca i32, align 4
  %4 = alloca i8, align 1
  store i64 %0, ptr %2, align 8
  store i32 1, ptr %3, align 4
  store i8 0, ptr %4, align 1
  %5 = load i64, ptr %2, align 8
  %6 = call i32 @H5I_get_type(i64 noundef %5)
  switch i32 %6, label %28 [
    i32 2, label %7
    i32 3, label %7
    i32 5, label %7
    i32 6, label %7
    i32 -2, label %27
    i32 -1, label %27
    i32 1, label %27
    i32 4, label %27
    i32 7, label %27
    i32 8, label %27
    i32 9, label %27
    i32 10, label %27
    i32 11, label %27
    i32 12, label %27
    i32 13, label %27
    i32 14, label %27
    i32 15, label %27
    i32 16, label %27
    i32 17, label %27
  ]

7:                                                ; preds = %1, %1, %1, %1
  %8 = load i64, ptr %2, align 8
  %9 = call ptr @H5I_object(i64 noundef %8)
  %10 = icmp eq ptr %9, null
  br i1 %10, label %11, label %26

11:                                               ; preds = %7
  br label %12

12:                                               ; preds = %11
  br label %13

13:                                               ; preds = %12
  br label %14

14:                                               ; preds = %13
  %15 = load i64, ptr @H5E_ARGS_g, align 8
  %16 = load i64, ptr @H5E_BADVALUE_g, align 8
  %17 = call i32 (ptr, ptr, i32, i64, i64, ptr, ...) @H5E_printf_stack(ptr noundef @.str, ptr noundef @__func__.H5O__close_check_type, i32 noundef 1857, i64 noundef %15, i64 noundef %16, ptr noundef @.str.75)
  br label %18

18:                                               ; preds = %14
  store i8 1, ptr %4, align 1
  %19 = load i8, ptr %4, align 1
  %20 = trunc i8 %19 to i1
  %21 = zext i1 %20 to i8
  store i8 %21, ptr %4, align 1
  br label %22

22:                                               ; preds = %18
  br label %23

23:                                               ; preds = %22
  store i32 -1, ptr %3, align 4
  br label %32

24:                                               ; No predecessors!
  br label %25

25:                                               ; preds = %24
  br label %26

26:                                               ; preds = %25, %7
  br label %31

27:                                               ; preds = %1, %1, %1, %1, %1, %1, %1, %1, %1, %1, %1, %1, %1, %1, %1
  br label %28

28:                                               ; preds = %27, %1
  br label %29

29:                                               ; preds = %28
  store i32 0, ptr %3, align 4
  br label %32

30:                                               ; No predecessors!
  br label %31

31:                                               ; preds = %30, %26
  br label %32

32:                                               ; preds = %31, %29, %23
  %33 = load i32, ptr %3, align 4
  ret i32 %33
}

; Function Attrs: nounwind uwtable
define i32 @H5Oclose(i64 noundef %0) #0 {
  %2 = alloca i64, align 8
  %3 = alloca i32, align 4
  %4 = alloca i8, align 1
  %5 = alloca i8, align 1
  store i64 %0, ptr %2, align 8
  store i32 0, ptr %3, align 4
  store i8 0, ptr %4, align 1
  store i8 0, ptr %5, align 1
  %6 = load i8, ptr @H5_libinit_g, align 1
  %7 = trunc i8 %6 to i1
  br i1 %7, label %12, label %8

8:                                                ; preds = %1
  %9 = load i8, ptr @H5_libterm_g, align 1
  %10 = trunc i8 %9 to i1
  %11 = xor i1 %10, true
  br label %12

12:                                               ; preds = %8, %1
  %13 = phi i1 [ false, %1 ], [ %11, %8 ]
  %14 = xor i1 %13, true
  %15 = xor i1 %14, true
  %16 = zext i1 %15 to i32
  %17 = sext i32 %16 to i64
  %18 = icmp ne i64 %17, 0
  br i1 %18, label %19, label %43

19:                                               ; preds = %12
  %20 = call i32 @H5_init_library()
  %21 = icmp slt i32 %20, 0
  %22 = xor i1 %21, true
  %23 = xor i1 %22, true
  %24 = zext i1 %23 to i32
  %25 = sext i32 %24 to i64
  %26 = icmp ne i64 %25, 0
  br i1 %26, label %27, label %42

27:                                               ; preds = %19
  br label %28

28:                                               ; preds = %27
  br label %29

29:                                               ; preds = %28
  br label %30

30:                                               ; preds = %29
  %31 = load i64, ptr @H5E_FUNC_g, align 8
  %32 = load i64, ptr @H5E_CANTINIT_g, align 8
  %33 = call i32 (ptr, ptr, i32, i64, i64, ptr, ...) @H5E_printf_stack(ptr noundef @.str, ptr noundef @__func__.H5Oclose, i32 noundef 1903, i64 noundef %31, i64 noundef %32, ptr noundef @.str.1)
  br label %34

34:                                               ; preds = %30
  store i8 1, ptr %5, align 1
  %35 = load i8, ptr %5, align 1
  %36 = trunc i8 %35 to i1
  %37 = zext i1 %36 to i8
  store i8 %37, ptr %5, align 1
  br label %38

38:                                               ; preds = %34
  br label %39

39:                                               ; preds = %38
  store i32 -1, ptr %3, align 4
  br label %107

40:                                               ; No predecessors!
  br label %41

41:                                               ; preds = %40
  br label %42

42:                                               ; preds = %41, %19
  br label %43

43:                                               ; preds = %42, %12
  %44 = call i32 @H5CX_push()
  %45 = icmp slt i32 %44, 0
  %46 = xor i1 %45, true
  %47 = xor i1 %46, true
  %48 = zext i1 %47 to i32
  %49 = sext i32 %48 to i64
  %50 = icmp ne i64 %49, 0
  br i1 %50, label %51, label %66

51:                                               ; preds = %43
  br label %52

52:                                               ; preds = %51
  br label %53

53:                                               ; preds = %52
  br label %54

54:                                               ; preds = %53
  %55 = load i64, ptr @H5E_FUNC_g, align 8
  %56 = load i64, ptr @H5E_CANTSET_g, align 8
  %57 = call i32 (ptr, ptr, i32, i64, i64, ptr, ...) @H5E_printf_stack(ptr noundef @.str, ptr noundef @__func__.H5Oclose, i32 noundef 1903, i64 noundef %55, i64 noundef %56, ptr noundef @.str.2)
  br label %58

58:                                               ; preds = %54
  store i8 1, ptr %5, align 1
  %59 = load i8, ptr %5, align 1
  %60 = trunc i8 %59 to i1
  %61 = zext i1 %60 to i8
  store i8 %61, ptr %5, align 1
  br label %62

62:                                               ; preds = %58
  br label %63

63:                                               ; preds = %62
  store i32 -1, ptr %3, align 4
  br label %107

64:                                               ; No predecessors!
  br label %65

65:                                               ; preds = %64
  br label %67

66:                                               ; preds = %43
  store i8 1, ptr %4, align 1
  br label %67

67:                                               ; preds = %66, %65
  %68 = call i32 @H5E_clear_stack()
  %69 = load i64, ptr %2, align 8
  %70 = call i32 @H5O__close_check_type(i64 noundef %69)
  %71 = icmp sle i32 %70, 0
  br i1 %71, label %72, label %87

72:                                               ; preds = %67
  br label %73

73:                                               ; preds = %72
  br label %74

74:                                               ; preds = %73
  br label %75

75:                                               ; preds = %74
  %76 = load i64, ptr @H5E_OHDR_g, align 8
  %77 = load i64, ptr @H5E_CANTRELEASE_g, align 8
  %78 = call i32 (ptr, ptr, i32, i64, i64, ptr, ...) @H5E_printf_stack(ptr noundef @.str, ptr noundef @__func__.H5Oclose, i32 noundef 1907, i64 noundef %76, i64 noundef %77, ptr noundef @.str.75)
  br label %79

79:                                               ; preds = %75
  store i8 1, ptr %5, align 1
  %80 = load i8, ptr %5, align 1
  %81 = trunc i8 %80 to i1
  %82 = zext i1 %81 to i8
  store i8 %82, ptr %5, align 1
  br label %83

83:                                               ; preds = %79
  br label %84

84:                                               ; preds = %83
  store i32 -1, ptr %3, align 4
  br label %107

85:                                               ; No predecessors!
  br label %86

86:                                               ; preds = %85
  br label %87

87:                                               ; preds = %86, %67
  %88 = load i64, ptr %2, align 8
  %89 = call i32 @H5I_dec_app_ref(i64 noundef %88)
  %90 = icmp slt i32 %89, 0
  br i1 %90, label %91, label %106

91:                                               ; preds = %87
  br label %92

92:                                               ; preds = %91
  br label %93

93:                                               ; preds = %92
  br label %94

94:                                               ; preds = %93
  %95 = load i64, ptr @H5E_OHDR_g, align 8
  %96 = load i64, ptr @H5E_CANTRELEASE_g, align 8
  %97 = call i32 (ptr, ptr, i32, i64, i64, ptr, ...) @H5E_printf_stack(ptr noundef @.str, ptr noundef @__func__.H5Oclose, i32 noundef 1910, i64 noundef %95, i64 noundef %96, ptr noundef @.str.76)
  br label %98

98:                                               ; preds = %94
  store i8 1, ptr %5, align 1
  %99 = load i8, ptr %5, align 1
  %100 = trunc i8 %99 to i1
  %101 = zext i1 %100 to i8
  store i8 %101, ptr %5, align 1
  br label %102

102:                                              ; preds = %98
  br label %103

103:                                              ; preds = %102
  store i32 -1, ptr %3, align 4
  br label %107

104:                                              ; No predecessors!
  br label %105

105:                                              ; preds = %104
  br label %106

106:                                              ; preds = %105, %87
  br label %107

107:                                              ; preds = %106, %103, %84, %63, %39
  %108 = load i8, ptr %4, align 1
  %109 = trunc i8 %108 to i1
  %110 = xor i1 %109, true
  %111 = xor i1 %110, true
  %112 = zext i1 %111 to i32
  %113 = sext i32 %112 to i64
  %114 = icmp ne i64 %113, 0
  br i1 %114, label %115, label %117

115:                                              ; preds = %107
  %116 = call i32 @H5CX_pop(i1 noundef zeroext true)
  store i8 0, ptr %4, align 1
  br label %117

117:                                              ; preds = %115, %107
  %118 = load i8, ptr %5, align 1
  %119 = trunc i8 %118 to i1
  %120 = xor i1 %119, true
  %121 = xor i1 %120, true
  %122 = zext i1 %121 to i32
  %123 = sext i32 %122 to i64
  %124 = icmp ne i64 %123, 0
  br i1 %124, label %125, label %127

125:                                              ; preds = %117
  %126 = call i32 @H5E_dump_api_stack()
  br label %127

127:                                              ; preds = %125, %117
  %128 = load i32, ptr %3, align 4
  ret i32 %128
}