; Function Attrs: nounwind uwtable
define range(i32 -1, 1) i32 @H5Oclose(i64 noundef %0) local_unnamed_addr #0 {
  %2 = load i8, ptr @H5_libinit_g, align 1
  %3 = trunc i8 %2 to i1
  %4 = load i8, ptr @H5_libterm_g, align 1
  %5 = trunc i8 %4 to i1
  %6 = select i1 %3, i1 true, i1 %5
  br i1 %6, label %14, label %7

7:                                                ; preds = %1
  %8 = tail call i32 @H5_init_library() #4
  %9 = icmp slt i32 %8, 0
  br i1 %9, label %10, label %14

10:                                               ; preds = %7
  %11 = load i64, ptr @H5E_FUNC_g, align 8
  %12 = load i64, ptr @H5E_CANTINIT_g, align 8
  %13 = tail call i32 (ptr, ptr, i32, i64, i64, ptr, ...) @H5E_printf_stack(ptr noundef nonnull @.str, ptr noundef nonnull @__func__.H5Oclose, i32 noundef 1903, i64 noundef %11, i64 noundef %12, ptr noundef nonnull @.str.1) #4
  br label %.thread20

14:                                               ; preds = %7, %1
  %15 = tail call i32 @H5CX_push() #4
  %16 = icmp slt i32 %15, 0
  br i1 %16, label %17, label %21

17:                                               ; preds = %14
  %18 = load i64, ptr @H5E_FUNC_g, align 8
  %19 = load i64, ptr @H5E_CANTSET_g, align 8
  %20 = tail call i32 (ptr, ptr, i32, i64, i64, ptr, ...) @H5E_printf_stack(ptr noundef nonnull @.str, ptr noundef nonnull @__func__.H5Oclose, i32 noundef 1903, i64 noundef %18, i64 noundef %19, ptr noundef nonnull @.str.2) #4
  br label %.thread20

21:                                               ; preds = %14
  %22 = tail call i32 @H5E_clear_stack() #4
  %23 = tail call i32 @H5I_get_type(i64 noundef %0) #4
  switch i32 %23, label %31 [
    i32 2, label %24
    i32 3, label %24
    i32 5, label %24
    i32 6, label %24
  ]

24:                                               ; preds = %21, %21, %21, %21
  %25 = tail call ptr @H5I_object(i64 noundef %0) #4
  %26 = icmp eq ptr %25, null
  br i1 %26, label %27, label %H5O__close_check_type.exit

27:                                               ; preds = %24
  %28 = load i64, ptr @H5E_ARGS_g, align 8
  %29 = load i64, ptr @H5E_BADVALUE_g, align 8
  %30 = tail call i32 (ptr, ptr, i32, i64, i64, ptr, ...) @H5E_printf_stack(ptr noundef nonnull @.str, ptr noundef nonnull @__func__.H5O__close_check_type, i32 noundef 1857, i64 noundef %28, i64 noundef %29, ptr noundef nonnull @.str.75) #4
  br label %31

31:                                               ; preds = %27, %21
  %32 = load i64, ptr @H5E_OHDR_g, align 8
  %33 = load i64, ptr @H5E_CANTRELEASE_g, align 8
  %34 = tail call i32 (ptr, ptr, i32, i64, i64, ptr, ...) @H5E_printf_stack(ptr noundef nonnull @.str, ptr noundef nonnull @__func__.H5Oclose, i32 noundef 1907, i64 noundef %32, i64 noundef %33, ptr noundef nonnull @.str.75) #4
  br label %.thread26

H5O__close_check_type.exit:                       ; preds = %24
  %35 = tail call i32 @H5I_dec_app_ref(i64 noundef %0) #4
  %36 = icmp slt i32 %35, 0
  br i1 %36, label %37, label %42

37:                                               ; preds = %H5O__close_check_type.exit
  %38 = load i64, ptr @H5E_OHDR_g, align 8
  %39 = load i64, ptr @H5E_CANTRELEASE_g, align 8
  %40 = tail call i32 (ptr, ptr, i32, i64, i64, ptr, ...) @H5E_printf_stack(ptr noundef nonnull @.str, ptr noundef nonnull @__func__.H5Oclose, i32 noundef 1910, i64 noundef %38, i64 noundef %39, ptr noundef nonnull @.str.76) #4
  br label %.thread26

.thread26:                                        ; preds = %37, %31
  %41 = tail call i32 @H5CX_pop(i1 noundef zeroext true) #4
  br label %.thread20

42:                                               ; preds = %H5O__close_check_type.exit
  %43 = tail call i32 @H5CX_pop(i1 noundef zeroext true) #4
  br label %45

.thread20:                                        ; preds = %17, %10, %.thread26
  %44 = tail call i32 @H5E_dump_api_stack() #4
  br label %45

45:                                               ; preds = %42, %.thread20
  %.0101523 = phi i32 [ -1, %.thread20 ], [ 0, %42 ]
  ret i32 %.0101523
}